target datalayout = "e-m:e-p270:32:32-p271:32:32-p272:64:64-i64:64-i128:128-f80:128-n8:16:32:64-S128"
target triple = "x86_64-pc-linux-gnu"

%struct.CRYPTO_REF_COUNT = type { i32 }
%struct.crypto_ex_data_st = type { ptr, ptr }
%struct.OSSL_TIME = type { i64 }
%struct.srp_ctx_st = type { ptr, ptr, ptr, ptr, ptr, ptr, ptr, ptr, ptr, ptr, ptr, ptr, ptr, ptr, i32, i64 }
%struct.ssl_ctx_st = type { ptr, ptr, ptr, ptr, ptr, ptr, ptr, i64, ptr, ptr, i32, %struct.OSSL_TIME, ptr, ptr, ptr, %struct.anon.3, %struct.CRYPTO_REF_COUNT, ptr, ptr, ptr, ptr, ptr, ptr, ptr, ptr, ptr, %struct.crypto_ex_data_st, ptr, ptr, ptr, ptr, ptr, ptr, ptr, i64, i32, i32, i32, i64, ptr, ptr, i32, ptr, ptr, i32, i64, [32 x i8], ptr, ptr, ptr, i32, ptr, ptr, ptr, i64, i64, i64, i64, ptr, ptr, ptr, ptr, ptr, %struct.anon.4, ptr, ptr, ptr, ptr, %struct.srp_ctx_st, %struct.dane_ctx_st, ptr, ptr, ptr, ptr, i32, i32, ptr, ptr, i64, i64, ptr, ptr, ptr, i64, ptr, ptr, i32, ptr, ptr, ptr, [14 x i32], [24 x ptr], [14 x ptr], [14 x i64], i64, ptr, ptr, ptr, i64, i64, ptr, i64, i64, i32, i32, i32, i32, ptr, i64, ptr, i64, i64, ptr, ptr }
%struct.anon.3 = type { i32, i32, i32, i32, i32, i32, i32, i32, i32, i32, i32 }
%struct.anon.4 = type { ptr, ptr, [16 x i8], ptr, ptr, ptr, ptr, ptr, i32, i8, i64, ptr, i64, ptr, i64, ptr, i64, ptr, ptr, i64, ptr, ptr, ptr, i64, ptr, ptr, ptr, ptr, [32 x i8] }
%struct.dane_ctx_st = type { ptr, ptr, i8, i64 }
%struct.cert_st = type { ptr, ptr, ptr, i32, i32, ptr, i64, ptr, i64, ptr, i64, ptr, i64, ptr, ptr, ptr, ptr, %struct.custom_ext_methods, ptr, i32, ptr, ptr, %struct.CRYPTO_REF_COUNT }
%struct.custom_ext_methods = type { ptr, i64 }
%struct.cert_pkey_st = type { ptr, ptr, ptr, ptr, i64 }

@.str = private unnamed_addr constant [25 x i8] c"../openssl/ssl/ssl_lib.c\00", align 1
@__func__.SSL_CTX_check_private_key = private unnamed_addr constant [26 x i8] c"SSL_CTX_check_private_key\00", align 1

; Function Attrs: nounwind uwtable
define i32 @SSL_CTX_check_private_key(ptr noundef %0) #0 {
  %2 = alloca i32, align 4
  %3 = alloca ptr, align 8
  store ptr %0, ptr %3, align 8, !tbaa !109
  %4 = load ptr, ptr %3, align 8, !tbaa !109
  %5 = icmp eq ptr %4, null
  br i1 %5, label %15, label %6

6:                                                ; preds = %1
  %7 = load ptr, ptr %3, align 8, !tbaa !109
  %8 = getelementptr inbounds nuw %struct.ssl_ctx_st, ptr %7, i32 0, i32 39
  %9 = load ptr, ptr %8, align 8, !tbaa !127
  %10 = getelementptr inbounds nuw %struct.cert_st, ptr %9, i32 0, i32 0
  %11 = load ptr, ptr %10, align 8, !tbaa !424
  %12 = getelementptr inbounds nuw %struct.cert_pkey_st, ptr %11, i32 0, i32 0
  %13 = load ptr, ptr %12, align 8, !tbaa !427
  %14 = icmp eq ptr %13, null
  br i1 %14, label %15, label %16

15:                                               ; preds = %6, %1
  call void @ERR_new()
  call void @ERR_set_debug(ptr noundef @.str, i32 noundef 2050, ptr noundef @__func__.SSL_CTX_check_private_key)
  call void (i32, i32, ptr, ...) @ERR_set_error(i32 noundef 20, i32 noundef 177, ptr noundef null)
  store i32 0, ptr %2, align 4
  br label %42

16:                                               ; preds = %6
  %17 = load ptr, ptr %3, align 8, !tbaa !109
  %18 = getelementptr inbounds nuw %struct.ssl_ctx_st, ptr %17, i32 0, i32 39
  %19 = load ptr, ptr %18, align 8, !tbaa !127
  %20 = getelementptr inbounds nuw %struct.cert_st, ptr %19, i32 0, i32 0
  %21 = load ptr, ptr %20, align 8, !tbaa !424
  %22 = getelementptr inbounds nuw %struct.cert_pkey_st, ptr %21, i32 0, i32 1
  %23 = load ptr, ptr %22, align 8, !tbaa !429
  %24 = icmp eq ptr %23, null
  br i1 %24, label %25, label %26

25:                                               ; preds = %16
  call void @ERR_new()
  call void @ERR_set_debug(ptr noundef @.str, i32 noundef 2054, ptr noundef @__func__.SSL_CTX_check_private_key)
  call void (i32, i32, ptr, ...) @ERR_set_error(i32 noundef 20, i32 noundef 190, ptr noundef null)
  store i32 0, ptr %2, align 4
  br label %42

26:                                               ; preds = %16
  %27 = load ptr, ptr %3, align 8, !tbaa !109
  %28 = getelementptr inbounds nuw %struct.ssl_ctx_st, ptr %27, i32 0, i32 39
  %29 = load ptr, ptr %28, align 8, !tbaa !127
  %30 = getelementptr inbounds nuw %struct.cert_st, ptr %29, i32 0, i32 0
  %31 = load ptr, ptr %30, align 8, !tbaa !424
  %32 = getelementptr inbounds nuw %struct.cert_pkey_st, ptr %31, i32 0, i32 0
  %33 = load ptr, ptr %32, align 8, !tbaa !427
  %34 = load ptr, ptr %3, align 8, !tbaa !109
  %35 = getelementptr inbounds nuw %struct.ssl_ctx_st, ptr %34, i32 0, i32 39
  %36 = load ptr, ptr %35, align 8, !tbaa !127
  %37 = getelementptr inbounds nuw %struct.cert_st, ptr %36, i32 0, i32 0
  %38 = load ptr, ptr %37, align 8, !tbaa !424
  %39 = getelementptr inbounds nuw %struct.cert_pkey_st, ptr %38, i32 0, i32 1
  %40 = load ptr, ptr %39, align 8, !tbaa !429
  %41 = call i32 @X509_check_private_key(ptr noundef %33, ptr noundef %40)
  store i32 %41, ptr %2, align 4
  br label %42

42:                                               ; preds = %26, %25, %15
  %43 = load i32, ptr %2, align 4
  ret i32 %43
}