; Function Attrs: nounwind uwtable
define i32 @SSL_CTX_check_private_key(ptr noundef readonly captures(address_is_null) %0) local_unnamed_addr #0 {
  %2 = icmp eq ptr %0, null
  br i1 %2, label %9, label %3

3:                                                ; preds = %1
  %4 = getelementptr inbounds nuw i8, ptr %0, i64 344
  %5 = load ptr, ptr %4, align 8, !tbaa !115
  %6 = load ptr, ptr %5, align 8, !tbaa !384
  %7 = load ptr, ptr %6, align 8, !tbaa !387
  %8 = icmp eq ptr %7, null
  br i1 %8, label %9, label %10

9:                                                ; preds = %3, %1
  tail call void @ERR_new() #20
  tail call void @ERR_set_debug(ptr noundef nonnull @.str, i32 noundef 2050, ptr noundef nonnull @__func__.SSL_CTX_check_private_key) #20
  tail call void (i32, i32, ptr, ...) @ERR_set_error(i32 noundef 20, i32 noundef 177, ptr noundef null) #20
  br label %17

10:                                               ; preds = %3
  %11 = getelementptr inbounds nuw i8, ptr %6, i64 8
  %12 = load ptr, ptr %11, align 8, !tbaa !389
  %13 = icmp eq ptr %12, null
  br i1 %13, label %14, label %15

14:                                               ; preds = %10
  tail call void @ERR_new() #20
  tail call void @ERR_set_debug(ptr noundef nonnull @.str, i32 noundef 2054, ptr noundef nonnull @__func__.SSL_CTX_check_private_key) #20
  tail call void (i32, i32, ptr, ...) @ERR_set_error(i32 noundef 20, i32 noundef 190, ptr noundef null) #20
  br label %17

15:                                               ; preds = %10
  %16 = tail call i32 @X509_check_private_key(ptr noundef nonnull %7, ptr noundef nonnull %12) #20
  br label %17

17:                                               ; preds = %15, %14, %9
  %.0 = phi i32 [ 0, %9 ], [ 0, %14 ], [ %16, %15 ]
  ret i32 %.0
}